target datalayout = "e-m:e-p270:32:32-p271:32:32-p272:64:64-i64:64-i128:128-f80:128-n8:16:32:64-S128"
target triple = "x86_64-pc-linux-gnu"

; Function Attrs: mustprogress nounwind uwtable
define internal noundef zeroext i8 @_ZL11_hb_ucd_cccj(i32 noundef %0) #1 {
  %2 = alloca i32, align 4
  store i32 %0, ptr %2, align 4
  %3 = load i32, ptr %2, align 4
  %4 = icmp ult i32 %3, 125259
  br i1 %4, label %5, label %58

5:                                                ; preds = %1
  %6 = load i32, ptr %2, align 4
  %7 = lshr i32 %6, 2
  %8 = lshr i32 %7, 2
  %9 = lshr i32 %8, 2
  %10 = lshr i32 %9, 3
  %11 = add i32 7186, %10
  %12 = zext i32 %11 to i64
  %13 = getelementptr inbounds [17884 x i8], ptr @_ZL10_hb_ucd_u8, i64 0, i64 %12
  %14 = load i8, ptr %13, align 1
  %15 = zext i8 %14 to i32
  %16 = shl i32 %15, 3
  %17 = load i32, ptr %2, align 4
  %18 = lshr i32 %17, 2
  %19 = lshr i32 %18, 2
  %20 = lshr i32 %19, 2
  %21 = and i32 %20, 7
  %22 = add i32 %16, %21
  %23 = add i32 7432, %22
  %24 = zext i32 %23 to i64
  %25 = getelementptr inbounds [17884 x i8], ptr @_ZL10_hb_ucd_u8, i64 0, i64 %24
  %26 = load i8, ptr %25, align 1
  %27 = zext i8 %26 to i32
  %28 = shl i32 %27, 2
  %29 = load i32, ptr %2, align 4
  %30 = lshr i32 %29, 2
  %31 = lshr i32 %30, 2
  %32 = and i32 %31, 3
  %33 = add i32 %28, %32
  %34 = add i32 7784, %33
  %35 = zext i32 %34 to i64
  %36 = getelementptr inbounds [17884 x i8], ptr @_ZL10_hb_ucd_u8, i64 0, i64 %35
  %37 = load i8, ptr %36, align 1
  %38 = zext i8 %37 to i32
  %39 = shl i32 %38, 2
  %40 = load i32, ptr %2, align 4
  %41 = lshr i32 %40, 2
  %42 = and i32 %41, 3
  %43 = add i32 %39, %42
  %44 = add i32 8244, %43
  %45 = zext i32 %44 to i64
  %46 = getelementptr inbounds [17884 x i8], ptr @_ZL10_hb_ucd_u8, i64 0, i64 %45
  %47 = load i8, ptr %46, align 1
  %48 = zext i8 %47 to i32
  %49 = shl i32 %48, 2
  %50 = load i32, ptr %2, align 4
  %51 = and i32 %50, 3
  %52 = add i32 %49, %51
  %53 = add i32 8800, %52
  %54 = zext i32 %53 to i64
  %55 = getelementptr inbounds [17884 x i8], ptr @_ZL10_hb_ucd_u8, i64 0, i64 %54
  %56 = load i8, ptr %55, align 1
  %57 = zext i8 %56 to i32
  br label %59

58:                                               ; preds = %1
  br label %59

59:                                               ; preds = %58, %5
  %60 = phi i32 [ %57, %5 ], [ 0, %58 ]
  %61 = trunc i32 %60 to i8
  ret i8 %61
}

; Function Attrs: mustprogress uwtable
define internal noundef i32 @_ZL22hb_ucd_combining_classP18hb_unicode_funcs_tjPv(ptr noundef %0, i32 noundef %1, ptr noundef %2) #0 {
  %4 = alloca ptr, align 8
  %5 = alloca i32, align 4
  %6 = alloca ptr, align 8
  store ptr %0, ptr %4, align 8
  store i32 %1, ptr %5, align 4
  store ptr %2, ptr %6, align 8
  %7 = load i32, ptr %5, align 4
  %8 = call noundef zeroext i8 @_ZL11_hb_ucd_cccj(i32 noundef %7)
  %9 = zext i8 %8 to i32
  ret i32 %9
}