; Function Attrs: mustprogress nofree norecurse nosync nounwind willreturn memory(none) uwtable
define internal noundef range(i32 0, 256) i32 @_ZL22hb_ucd_combining_classP18hb_unicode_funcs_tjPv(ptr nocapture readnone %0, i32 noundef %1, ptr nocapture readnone %2) #2 {
  %4 = icmp ult i32 %1, 125259
  br i1 %4, label %5, label %_ZL11_hb_ucd_cccj.exit

5:                                                ; preds = %3
  %6 = lshr i32 %1, 2
  %7 = lshr i32 %1, 4
  %8 = lshr i32 %1, 6
  %9 = lshr i32 %1, 9
  %10 = add nuw nsw i32 %9, 7186
  %11 = zext nneg i32 %10 to i64
  %12 = getelementptr inbounds [17884 x i8], ptr @_ZL10_hb_ucd_u8, i64 0, i64 %11
  %13 = load i8, ptr %12, align 1
  %14 = zext i8 %13 to i32
  %15 = shl nuw nsw i32 %14, 3
  %16 = and i32 %8, 7
  %17 = or disjoint i32 %16, 7432
  %18 = add nuw nsw i32 %17, %15
  %19 = zext nneg i32 %18 to i64
  %20 = getelementptr inbounds [17884 x i8], ptr @_ZL10_hb_ucd_u8, i64 0, i64 %19
  %21 = load i8, ptr %20, align 1
  %22 = zext i8 %21 to i32
  %23 = shl nuw nsw i32 %22, 2
  %24 = and i32 %7, 3
  %25 = or disjoint i32 %24, 7784
  %26 = add nuw nsw i32 %25, %23
  %27 = zext nneg i32 %26 to i64
  %28 = getelementptr inbounds [17884 x i8], ptr @_ZL10_hb_ucd_u8, i64 0, i64 %27
  %29 = load i8, ptr %28, align 1
  %30 = zext i8 %29 to i32
  %31 = shl nuw nsw i32 %30, 2
  %32 = and i32 %6, 3
  %33 = or disjoint i32 %32, 8244
  %34 = add nuw nsw i32 %33, %31
  %35 = zext nneg i32 %34 to i64
  %36 = getelementptr inbounds [17884 x i8], ptr @_ZL10_hb_ucd_u8, i64 0, i64 %35
  %37 = load i8, ptr %36, align 1
  %38 = zext i8 %37 to i32
  %39 = shl nuw nsw i32 %38, 2
  %40 = and i32 %1, 3
  %41 = or disjoint i32 %40, 8800
  %42 = add nuw nsw i32 %41, %39
  %43 = zext nneg i32 %42 to i64
  %44 = getelementptr inbounds [17884 x i8], ptr @_ZL10_hb_ucd_u8, i64 0, i64 %43
  %45 = load i8, ptr %44, align 1
  %46 = zext i8 %45 to i32
  br label %_ZL11_hb_ucd_cccj.exit

_ZL11_hb_ucd_cccj.exit:                           ; preds = %3, %5
  %47 = phi i32 [ %46, %5 ], [ 0, %3 ]
  ret i32 %47
}